target datalayout = "e-m:e-p270:32:32-p271:32:32-p272:64:64-i64:64-i128:128-f80:128-n8:16:32:64-S128"
target triple = "x86_64-pc-linux-gnu"

; Function Attrs: mustprogress nounwind uwtable
define internal noundef zeroext i8 @_ZN32pxrInternal_v0_24__pxrReserved__L15_OctalToDecimalEc(i8 noundef signext %0) #5 {
  %2 = alloca i8, align 1
  store i8 %0, ptr %2, align 1
  %3 = load i8, ptr %2, align 1
  %4 = sext i8 %3 to i32
  %5 = sub nsw i32 %4, 48
  %6 = trunc i32 %5 to i8
  ret i8 %6
}

; Function Attrs: mustprogress nounwind uwtable
define internal noundef zeroext i1 @_ZN32pxrInternal_v0_24__pxrReserved__L13_IsOctalDigitEc(i8 noundef signext %0) #5 {
  %2 = alloca i8, align 1
  store i8 %0, ptr %2, align 1
  %3 = load i8, ptr %2, align 1
  %4 = sext i8 %3 to i32
  %5 = icmp sle i32 48, %4
  br i1 %5, label %6, label %10

6:                                                ; preds = %1
  %7 = load i8, ptr %2, align 1
  %8 = sext i8 %7 to i32
  %9 = icmp sle i32 %8, 55
  br label %10

10:                                               ; preds = %6, %1
  %11 = phi i1 [ false, %1 ], [ %9, %6 ]
  ret i1 %11
}

; Function Attrs: mustprogress nounwind uwtable
define internal noundef zeroext i8 @_ZN32pxrInternal_v0_24__pxrReserved__L13_HexToDecimalEc(i8 noundef signext %0) #5 {
  %2 = alloca i8, align 1
  %3 = alloca i8, align 1
  store i8 %0, ptr %3, align 1
  %4 = load i8, ptr %3, align 1
  %5 = sext i8 %4 to i32
  %6 = icmp sle i32 97, %5
  br i1 %6, label %7, label %17

7:                                                ; preds = %1
  %8 = load i8, ptr %3, align 1
  %9 = sext i8 %8 to i32
  %10 = icmp sle i32 %9, 102
  br i1 %10, label %11, label %17

11:                                               ; preds = %7
  %12 = load i8, ptr %3, align 1
  %13 = sext i8 %12 to i32
  %14 = sub nsw i32 %13, 97
  %15 = add nsw i32 %14, 10
  %16 = trunc i32 %15 to i8
  store i8 %16, ptr %2, align 1
  br label %37

17:                                               ; preds = %7, %1
  %18 = load i8, ptr %3, align 1
  %19 = sext i8 %18 to i32
  %20 = icmp sle i32 65, %19
  br i1 %20, label %21, label %31

21:                                               ; preds = %17
  %22 = load i8, ptr %3, align 1
  %23 = sext i8 %22 to i32
  %24 = icmp sle i32 %23, 70
  br i1 %24, label %25, label %31

25:                                               ; preds = %21
  %26 = load i8, ptr %3, align 1
  %27 = sext i8 %26 to i32
  %28 = sub nsw i32 %27, 65
  %29 = add nsw i32 %28, 10
  %30 = trunc i32 %29 to i8
  store i8 %30, ptr %2, align 1
  br label %37

31:                                               ; preds = %21, %17
  br label %32

32:                                               ; preds = %31
  %33 = load i8, ptr %3, align 1
  %34 = sext i8 %33 to i32
  %35 = sub nsw i32 %34, 48
  %36 = trunc i32 %35 to i8
  store i8 %36, ptr %2, align 1
  br label %37

37:                                               ; preds = %32, %25, %11
  %38 = load i8, ptr %2, align 1
  ret i8 %38
}

; Function Attrs: mustprogress uwtable
define void @_ZN32pxrInternal_v0_24__pxrReserved__25TfEscapeStringReplaceCharEPPKcPPc(ptr noundef %0, ptr noundef %1) #0 {
  %3 = alloca ptr, align 8
  %4 = alloca ptr, align 8
  %5 = alloca i8, align 1
  %6 = alloca i32, align 4
  %7 = alloca i8, align 1
  %8 = alloca i32, align 4
  store ptr %0, ptr %3, align 8
  store ptr %1, ptr %4, align 8
  %9 = load ptr, ptr %3, align 8
  %10 = load ptr, ptr %9, align 8
  %11 = getelementptr inbounds i8, ptr %10, i32 1
  store ptr %11, ptr %9, align 8
  %12 = load i8, ptr %11, align 1
  %13 = sext i8 %12 to i32
  switch i32 %13, label %14 [
    i32 92, label %21
    i32 97, label %25
    i32 98, label %29
    i32 102, label %33
    i32 110, label %37
    i32 114, label %41
    i32 116, label %45
    i32 118, label %49
    i32 120, label %53
    i32 48, label %89
    i32 49, label %89
    i32 50, label %89
    i32 51, label %89
    i32 52, label %89
    i32 53, label %89
    i32 54, label %89
    i32 55, label %89
  ]

14:                                               ; preds = %2
  %15 = load ptr, ptr %3, align 8
  %16 = load ptr, ptr %15, align 8
  %17 = load i8, ptr %16, align 1
  %18 = load ptr, ptr %4, align 8
  %19 = load ptr, ptr %18, align 8
  %20 = getelementptr inbounds i8, ptr %19, i32 1
  store ptr %20, ptr %18, align 8
  store i8 %17, ptr %19, align 1
  br label %126

21:                                               ; preds = %2
  %22 = load ptr, ptr %4, align 8
  %23 = load ptr, ptr %22, align 8
  %24 = getelementptr inbounds i8, ptr %23, i32 1
  store ptr %24, ptr %22, align 8
  store i8 92, ptr %23, align 1
  br label %126

25:                                               ; preds = %2
  %26 = load ptr, ptr %4, align 8
  %27 = load ptr, ptr %26, align 8
  %28 = getelementptr inbounds i8, ptr %27, i32 1
  store ptr %28, ptr %26, align 8
  store i8 7, ptr %27, align 1
  br label %126

29:                                               ; preds = %2
  %30 = load ptr, ptr %4, align 8
  %31 = load ptr, ptr %30, align 8
  %32 = getelementptr inbounds i8, ptr %31, i32 1
  store ptr %32, ptr %30, align 8
  store i8 8, ptr %31, align 1
  br label %126

33:                                               ; preds = %2
  %34 = load ptr, ptr %4, align 8
  %35 = load ptr, ptr %34, align 8
  %36 = getelementptr inbounds i8, ptr %35, i32 1
  store ptr %36, ptr %34, align 8
  store i8 12, ptr %35, align 1
  br label %126

37:                                               ; preds = %2
  %38 = load ptr, ptr %4, align 8
  %39 = load ptr, ptr %38, align 8
  %40 = getelementptr inbounds i8, ptr %39, i32 1
  store ptr %40, ptr %38, align 8
  store i8 10, ptr %39, align 1
  br label %126

41:                                               ; preds = %2
  %42 = load ptr, ptr %4, align 8
  %43 = load ptr, ptr %42, align 8
  %44 = getelementptr inbounds i8, ptr %43, i32 1
  store ptr %44, ptr %42, align 8
  store i8 13, ptr %43, align 1
  br label %126

45:                                               ; preds = %2
  %46 = load ptr, ptr %4, align 8
  %47 = load ptr, ptr %46, align 8
  %48 = getelementptr inbounds i8, ptr %47, i32 1
  store ptr %48, ptr %46, align 8
  store i8 9, ptr %47, align 1
  br label %126

49:                                               ; preds = %2
  %50 = load ptr, ptr %4, align 8
  %51 = load ptr, ptr %50, align 8
  %52 = getelementptr inbounds i8, ptr %51, i32 1
  store ptr %52, ptr %50, align 8
  store i8 11, ptr %51, align 1
  br label %126

53:                                               ; preds = %2
  store i8 0, ptr %5, align 1
  store i32 0, ptr %6, align 4
  br label %54

54:                                               ; preds = %78, %53
  %55 = load ptr, ptr %3, align 8
  %56 = load ptr, ptr %55, align 8
  %57 = getelementptr inbounds i8, ptr %56, i32 1
  store ptr %57, ptr %55, align 8
  %58 = load i8, ptr %57, align 1
  %59 = sext i8 %58 to i32
  %60 = call i32 @isxdigit(i32 noundef %59) #15
  %61 = icmp ne i32 %60, 0
  br i1 %61, label %62, label %65

62:                                               ; preds = %54
  %63 = load i32, ptr %6, align 4
  %64 = icmp ne i32 %63, 2
  br label %65

65:                                               ; preds = %62, %54
  %66 = phi i1 [ false, %54 ], [ %64, %62 ]
  br i1 %66, label %67, label %81

67:                                               ; preds = %65
  %68 = load i8, ptr %5, align 1
  %69 = zext i8 %68 to i32
  %70 = mul nsw i32 %69, 16
  %71 = load ptr, ptr %3, align 8
  %72 = load ptr, ptr %71, align 8
  %73 = load i8, ptr %72, align 1
  %74 = call noundef zeroext i8 @_ZN32pxrInternal_v0_24__pxrReserved__L13_HexToDecimalEc(i8 noundef signext %73)
  %75 = zext i8 %74 to i32
  %76 = add nsw i32 %70, %75
  %77 = trunc i32 %76 to i8
  store i8 %77, ptr %5, align 1
  br label %78

78:                                               ; preds = %67
  %79 = load i32, ptr %6, align 4
  %80 = add nsw i32 %79, 1
  store i32 %80, ptr %6, align 4
  br label %54, !llvm.loop !37

81:                                               ; preds = %65
  %82 = load ptr, ptr %3, align 8
  %83 = load ptr, ptr %82, align 8
  %84 = getelementptr inbounds i8, ptr %83, i32 -1
  store ptr %84, ptr %82, align 8
  %85 = load i8, ptr %5, align 1
  %86 = load ptr, ptr %4, align 8
  %87 = load ptr, ptr %86, align 8
  %88 = getelementptr inbounds i8, ptr %87, i32 1
  store ptr %88, ptr %86, align 8
  store i8 %85, ptr %87, align 1
  br label %126

89:                                               ; preds = %2, %2, %2, %2, %2, %2, %2, %2
  %90 = load ptr, ptr %3, align 8
  %91 = load ptr, ptr %90, align 8
  %92 = getelementptr inbounds i8, ptr %91, i32 -1
  store ptr %92, ptr %90, align 8
  store i8 0, ptr %7, align 1
  store i32 0, ptr %8, align 4
  br label %93

93:                                               ; preds = %115, %89
  %94 = load ptr, ptr %3, align 8
  %95 = load ptr, ptr %94, align 8
  %96 = getelementptr inbounds i8, ptr %95, i32 1
  store ptr %96, ptr %94, align 8
  %97 = load i8, ptr %96, align 1
  %98 = call noundef zeroext i1 @_ZN32pxrInternal_v0_24__pxrReserved__L13_IsOctalDigitEc(i8 noundef signext %97)
  br i1 %98, label %99, label %102

99:                                               ; preds = %93
  %100 = load i32, ptr %8, align 4
  %101 = icmp ne i32 %100, 3
  br label %102

102:                                              ; preds = %99, %93
  %103 = phi i1 [ false, %93 ], [ %101, %99 ]
  br i1 %103, label %104, label %118

104:                                              ; preds = %102
  %105 = load i8, ptr %7, align 1
  %106 = zext i8 %105 to i32
  %107 = mul nsw i32 %106, 8
  %108 = load ptr, ptr %3, align 8
  %109 = load ptr, ptr %108, align 8
  %110 = load i8, ptr %109, align 1
  %111 = call noundef zeroext i8 @_ZN32pxrInternal_v0_24__pxrReserved__L15_OctalToDecimalEc(i8 noundef signext %110)
  %112 = zext i8 %111 to i32
  %113 = add nsw i32 %107, %112
  %114 = trunc i32 %113 to i8
  store i8 %114, ptr %7, align 1
  br label %115

115:                                              ; preds = %104
  %116 = load i32, ptr %8, align 4
  %117 = add nsw i32 %116, 1
  store i32 %117, ptr %8, align 4
  br label %93, !llvm.loop !38

118:                                              ; preds = %102
  %119 = load ptr, ptr %3, align 8
  %120 = load ptr, ptr %119, align 8
  %121 = getelementptr inbounds i8, ptr %120, i32 -1
  store ptr %121, ptr %119, align 8
  %122 = load i8, ptr %7, align 1
  %123 = load ptr, ptr %4, align 8
  %124 = load ptr, ptr %123, align 8
  %125 = getelementptr inbounds i8, ptr %124, i32 1
  store ptr %125, ptr %123, align 8
  store i8 %122, ptr %124, align 1
  br label %126

126:                                              ; preds = %118, %81, %49, %45, %41, %37, %33, %29, %25, %21, %14
  ret void
}