; Function Attrs: mustprogress nofree nounwind memory(readwrite, inaccessiblemem: read) uwtable
define void @_ZN32pxrInternal_v0_24__pxrReserved__25TfEscapeStringReplaceCharEPPKcPPc(ptr nocapture noundef %0, ptr nocapture noundef %1) local_unnamed_addr #10 {
  %3 = load ptr, ptr %0, align 8
  %4 = getelementptr inbounds i8, ptr %3, i64 1
  store ptr %4, ptr %0, align 8
  %5 = load i8, ptr %4, align 1
  switch i8 %5, label %48 [
    i8 55, label %32
    i8 97, label %10
    i8 98, label %11
    i8 102, label %12
    i8 110, label %13
    i8 114, label %14
    i8 116, label %15
    i8 118, label %16
    i8 120, label %.preheader
    i8 48, label %32
    i8 49, label %32
    i8 50, label %32
    i8 51, label %32
    i8 52, label %32
    i8 53, label %32
    i8 54, label %32
  ]

.preheader:                                       ; preds = %2
  %6 = getelementptr inbounds i8, ptr %3, i64 2
  store ptr %6, ptr %0, align 8
  %7 = load i8, ptr %6, align 1
  %8 = sext i8 %7 to i32
  %9 = tail call i32 @isxdigit(i32 noundef %8) #23
  %.not = icmp eq i32 %9, 0
  br i1 %.not, label %._crit_edge38, label %.lr.ph37

10:                                               ; preds = %2
  br label %48

11:                                               ; preds = %2
  br label %48

12:                                               ; preds = %2
  br label %48

13:                                               ; preds = %2
  br label %48

14:                                               ; preds = %2
  br label %48

15:                                               ; preds = %2
  br label %48

16:                                               ; preds = %2
  br label %48

.lr.ph37:                                         ; preds = %.preheader, %.lr.ph37
  %17 = phi i8 [ %26, %.lr.ph37 ], [ %7, %.preheader ]
  %18 = phi ptr [ %25, %.lr.ph37 ], [ %6, %.preheader ]
  %.02836 = phi i32 [ %24, %.lr.ph37 ], [ 0, %.preheader ]
  %.02935 = phi i8 [ %23, %.lr.ph37 ], [ 0, %.preheader ]
  %19 = shl i8 %.02935, 4
  %20 = add i8 %17, -97
  %or.cond.i = icmp ult i8 %20, 6
  %21 = add i8 %17, -65
  %or.cond5.i = icmp ult i8 %21, 6
  %..i = select i1 %or.cond5.i, i8 -55, i8 -48
  %.sink.i = select i1 %or.cond.i, i8 -87, i8 %..i
  %22 = add i8 %17, %19
  %23 = add i8 %22, %.sink.i
  %24 = add nuw nsw i32 %.02836, 1
  %25 = getelementptr inbounds i8, ptr %18, i64 1
  store ptr %25, ptr %0, align 8
  %26 = load i8, ptr %25, align 1
  %27 = sext i8 %26 to i32
  %28 = tail call i32 @isxdigit(i32 noundef %27) #23
  %29 = icmp ne i32 %28, 0
  %30 = icmp ne i32 %24, 2
  %31 = select i1 %29, i1 %30, i1 false
  br i1 %31, label %.lr.ph37, label %._crit_edge38, !llvm.loop !50

._crit_edge38:                                    ; preds = %.lr.ph37, %.preheader
  %.029.lcssa = phi i8 [ 0, %.preheader ], [ %23, %.lr.ph37 ]
  %.lcssa = phi ptr [ %4, %.preheader ], [ %18, %.lr.ph37 ]
  store ptr %.lcssa, ptr %0, align 8
  br label %48

32:                                               ; preds = %2, %2, %2, %2, %2, %2, %2, %2
  %33 = load i8, ptr %4, align 1
  %34 = and i8 %33, -8
  %35 = icmp eq i8 %34, 48
  br i1 %35, label %.lr.ph, label %._crit_edge

.lr.ph:                                           ; preds = %32, %.lr.ph
  %36 = phi i8 [ %43, %.lr.ph ], [ %33, %32 ]
  %37 = phi ptr [ %42, %.lr.ph ], [ %4, %32 ]
  %.032 = phi i32 [ %41, %.lr.ph ], [ 0, %32 ]
  %.02731 = phi i8 [ %40, %.lr.ph ], [ 0, %32 ]
  %38 = shl i8 %.02731, 3
  %39 = add nsw i8 %36, -48
  %40 = add nuw nsw i8 %39, %38
  %41 = add nuw nsw i32 %.032, 1
  %42 = getelementptr inbounds i8, ptr %37, i64 1
  store ptr %42, ptr %0, align 8
  %43 = load i8, ptr %42, align 1
  %44 = and i8 %43, -8
  %45 = icmp eq i8 %44, 48
  %46 = icmp ne i32 %41, 3
  %47 = select i1 %45, i1 %46, i1 false
  br i1 %47, label %.lr.ph, label %._crit_edge, !llvm.loop !51

._crit_edge:                                      ; preds = %.lr.ph, %32
  %.027.lcssa = phi i8 [ 0, %32 ], [ %40, %.lr.ph ]
  %.lcssa30 = phi ptr [ %3, %32 ], [ %37, %.lr.ph ]
  store ptr %.lcssa30, ptr %0, align 8
  br label %48

48:                                               ; preds = %2, %._crit_edge, %._crit_edge38, %16, %15, %14, %13, %12, %11, %10
  %.027.lcssa.sink = phi i8 [ %.027.lcssa, %._crit_edge ], [ %.029.lcssa, %._crit_edge38 ], [ 11, %16 ], [ 9, %15 ], [ 13, %14 ], [ 10, %13 ], [ 12, %12 ], [ 8, %11 ], [ 7, %10 ], [ %5, %2 ]
  %49 = load ptr, ptr %1, align 8
  %50 = getelementptr inbounds i8, ptr %49, i64 1
  store ptr %50, ptr %1, align 8
  store i8 %.027.lcssa.sink, ptr %49, align 1
  ret void
}